target datalayout = "e-m:e-p270:32:32-p271:32:32-p272:64:64-i64:64-i128:128-f80:128-n8:16:32:64-S128"
target triple = "x86_64-pc-linux-gnu"

%struct.luaL_Stream = type { ptr, ptr }

@.str.2 = private unnamed_addr constant [11 x i8] c"_IO_output\00", align 1
@.str.18 = private unnamed_addr constant [26 x i8] c"default %s file is closed\00", align 1

; Function Attrs: nounwind uwtable
define internal ptr @getiofile(ptr noundef %0, ptr noundef %1) #0 {
  %3 = alloca ptr, align 8
  %4 = alloca ptr, align 8
  %5 = alloca ptr, align 8
  store ptr %0, ptr %3, align 8, !tbaa !4
  store ptr %1, ptr %4, align 8, !tbaa !11
  call void @llvm.lifetime.start.p0(i64 8, ptr %5) #8
  %6 = load ptr, ptr %3, align 8, !tbaa !4
  %7 = load ptr, ptr %4, align 8, !tbaa !11
  %8 = call i32 @lua_getfield(ptr noundef %6, i32 noundef -1001000, ptr noundef %7)
  %9 = load ptr, ptr %3, align 8, !tbaa !4
  %10 = call ptr @lua_touserdata(ptr noundef %9, i32 noundef -1)
  store ptr %10, ptr %5, align 8, !tbaa !13
  %11 = load ptr, ptr %5, align 8, !tbaa !13
  %12 = getelementptr inbounds nuw %struct.luaL_Stream, ptr %11, i32 0, i32 1
  %13 = load ptr, ptr %12, align 8, !tbaa !17
  %14 = icmp eq ptr %13, null
  %15 = zext i1 %14 to i32
  %16 = icmp ne i32 %15, 0
  %17 = zext i1 %16 to i32
  %18 = sext i32 %17 to i64
  %19 = call i64 @llvm.expect.i64(i64 %18, i64 0)
  %20 = icmp ne i64 %19, 0
  br i1 %20, label %21, label %26

21:                                               ; preds = %2
  %22 = load ptr, ptr %3, align 8, !tbaa !4
  %23 = load ptr, ptr %4, align 8, !tbaa !11
  %24 = getelementptr inbounds nuw i8, ptr %23, i64 4
  %25 = call i32 (ptr, ptr, ...) @luaL_error(ptr noundef %22, ptr noundef @.str.18, ptr noundef %24)
  br label %26

26:                                               ; preds = %21, %2
  %27 = load ptr, ptr %5, align 8, !tbaa !13
  %28 = getelementptr inbounds nuw %struct.luaL_Stream, ptr %27, i32 0, i32 0
  %29 = load ptr, ptr %28, align 8, !tbaa !15
  call void @llvm.lifetime.end.p0(i64 8, ptr %5) #8
  ret ptr %29
}

; Function Attrs: nounwind uwtable
define internal i32 @io_flush(ptr noundef %0) #0 {
  %2 = alloca ptr, align 8
  %3 = alloca ptr, align 8
  store ptr %0, ptr %2, align 8, !tbaa !4
  call void @llvm.lifetime.start.p0(i64 8, ptr %3) #8
  %4 = load ptr, ptr %2, align 8, !tbaa !4
  %5 = call ptr @getiofile(ptr noundef %4, ptr noundef @.str.2)
  store ptr %5, ptr %3, align 8, !tbaa !9
  %6 = call ptr @__errno_location() #9
  store i32 0, ptr %6, align 4, !tbaa !18
  %7 = load ptr, ptr %2, align 8, !tbaa !4
  %8 = load ptr, ptr %3, align 8, !tbaa !9
  %9 = call i32 @fflush(ptr noundef %8)
  %10 = icmp eq i32 %9, 0
  %11 = zext i1 %10 to i32
  %12 = call i32 @luaL_fileresult(ptr noundef %7, i32 noundef %11, ptr noundef null)
  call void @llvm.lifetime.end.p0(i64 8, ptr %3) #8
  ret i32 %12
}